#include <math.h>
#include <stdio.h>
#include <stdlib.h>
#include <string.h>

void main()
{
	int i,j,flag=0,n,k,a[10000];
	scanf("%d %d",&n,&k);
	for(i=0;i<n;i++)
	{
		if(i==1)
			scanf("%d",&a[i]);
		else
			scanf(" %d",&a[i]);
	}
	for(i=0;i<n-1;i++)
	{
		for(j=i+1;j<n;j++)
			if(k==a[i]+a[j])
				flag=1;
	}
	if(flag==1)
		printf("yes");
	else
		printf("no");
}
